target datalayout = "e-m:e-p270:32:32-p271:32:32-p272:64:64-i64:64-i128:128-f80:128-n8:16:32:64-S128"
target triple = "x86_64-pc-linux-gnu"

%class.remote_bitbang_t = type { ptr, i32, i32, [65536 x i8], [65536 x i8], i64, i64 }

@stderr = external global ptr, align 8
@.str.6 = private unnamed_addr constant [37 x i8] c"failed to accept on socket: %s (%d)\0A\00", align 1

; Function Attrs: mustprogress uwtable
define void @_ZN16remote_bitbang_t6acceptEv(ptr noundef nonnull align 8 dereferenceable(131104) %0) #4 align 2 {
  %2 = alloca ptr, align 8
  store ptr %0, ptr %2, align 8, !tbaa !3
  %3 = load ptr, ptr %2, align 8
  %4 = getelementptr inbounds nuw %class.remote_bitbang_t, ptr %3, i32 0, i32 1
  %5 = load i32, ptr %4, align 8, !tbaa !16
  %6 = call i32 @accept(i32 noundef %5, ptr noundef null, ptr noundef null)
  %7 = getelementptr inbounds nuw %class.remote_bitbang_t, ptr %3, i32 0, i32 2
  store i32 %6, ptr %7, align 4, !tbaa !17
  %8 = getelementptr inbounds nuw %class.remote_bitbang_t, ptr %3, i32 0, i32 2
  %9 = load i32, ptr %8, align 4, !tbaa !17
  %10 = icmp eq i32 %9, -1
  br i1 %10, label %11, label %25

11:                                               ; preds = %1
  %12 = call ptr @__errno_location() #11
  %13 = load i32, ptr %12, align 4, !tbaa !22
  %14 = icmp eq i32 %13, 11
  br i1 %14, label %15, label %16

15:                                               ; preds = %11
  br label %24

16:                                               ; preds = %11
  %17 = load ptr, ptr @stderr, align 8, !tbaa !20
  %18 = call ptr @__errno_location() #11
  %19 = load i32, ptr %18, align 4, !tbaa !22
  %20 = call ptr @strerror(i32 noundef %19) #3
  %21 = call ptr @__errno_location() #11
  %22 = load i32, ptr %21, align 4, !tbaa !22
  %23 = call i32 (ptr, ptr, ...) @fprintf(ptr noundef %17, ptr noundef @.str.6, ptr noundef %20, i32 noundef %22) #3
  call void @abort() #12
  unreachable

24:                                               ; preds = %15
  br label %29

25:                                               ; preds = %1
  %26 = getelementptr inbounds nuw %class.remote_bitbang_t, ptr %3, i32 0, i32 2
  %27 = load i32, ptr %26, align 4, !tbaa !17
  %28 = call i32 (i32, i32, ...) @fcntl(i32 noundef %27, i32 noundef 4, i32 noundef 2048)
  br label %29

29:                                               ; preds = %25, %24
  ret void
}

; Function Attrs: mustprogress uwtable
define void @_ZN16remote_bitbang_t4tickEv(ptr noundef nonnull align 8 dereferenceable(131104) %0) #4 align 2 {
  %2 = alloca ptr, align 8
  store ptr %0, ptr %2, align 8, !tbaa !3
  %3 = load ptr, ptr %2, align 8
  %4 = getelementptr inbounds nuw %class.remote_bitbang_t, ptr %3, i32 0, i32 2
  %5 = load i32, ptr %4, align 4, !tbaa !17
  %6 = icmp sgt i32 %5, 0
  br i1 %6, label %7, label %8

7:                                                ; preds = %1
  call void @_ZN16remote_bitbang_t16execute_commandsEv(ptr noundef nonnull align 8 dereferenceable(131104) %3)
  br label %9

8:                                                ; preds = %1
  call void @_ZN16remote_bitbang_t6acceptEv(ptr noundef nonnull align 8 dereferenceable(131104) %3)
  br label %9

9:                                                ; preds = %8, %7
  ret void
}