; Function Attrs: mustprogress uwtable
define void @_ZN16remote_bitbang_t4tickEv(ptr noundef nonnull align 8 captures(none) dereferenceable(131104) %0) local_unnamed_addr #3 align 2 {
  %2 = getelementptr inbounds nuw i8, ptr %0, i64 12
  %3 = load i32, ptr %2, align 4, !tbaa !12
  %4 = icmp sgt i32 %3, 0
  br i1 %4, label %5, label %6

5:                                                ; preds = %1
  tail call void @_ZN16remote_bitbang_t16execute_commandsEv(ptr noundef nonnull align 8 dereferenceable(131104) %0)
  br label %_ZN16remote_bitbang_t6acceptEv.exit

6:                                                ; preds = %1
  %7 = getelementptr inbounds nuw i8, ptr %0, i64 8
  %8 = load i32, ptr %7, align 8, !tbaa !11
  %9 = tail call i32 @accept(i32 noundef %8, ptr noundef null, ptr noundef null)
  store i32 %9, ptr %2, align 4, !tbaa !12
  %10 = icmp eq i32 %9, -1
  br i1 %10, label %11, label %20

11:                                               ; preds = %6
  %12 = tail call ptr @__errno_location() #13
  %13 = load i32, ptr %12, align 4, !tbaa !15
  %14 = icmp eq i32 %13, 11
  br i1 %14, label %_ZN16remote_bitbang_t6acceptEv.exit, label %15

15:                                               ; preds = %11
  %16 = load ptr, ptr @stderr, align 8, !tbaa !13
  %17 = tail call ptr @strerror(i32 noundef %13) #12
  %18 = load i32, ptr %12, align 4, !tbaa !15
  %19 = tail call i32 (ptr, ptr, ...) @fprintf(ptr noundef %16, ptr noundef nonnull @.str.6, ptr noundef %17, i32 noundef %18) #14
  tail call void @abort() #15
  unreachable

20:                                               ; preds = %6
  %21 = tail call i32 (i32, i32, ...) @fcntl(i32 noundef %9, i32 noundef 4, i32 noundef 2048)
  br label %_ZN16remote_bitbang_t6acceptEv.exit

_ZN16remote_bitbang_t6acceptEv.exit:              ; preds = %20, %11, %5
  ret void
}